target datalayout = "e-m:e-p270:32:32-p271:32:32-p272:64:64-i64:64-i128:128-f80:128-n8:16:32:64-S128"
target triple = "x86_64-pc-linux-gnu"

%struct._Unwind_Exception = type { i64, ptr, i64, i64 }
%"struct.__cxxabiv1::__cxa_exception" = type { ptr, i64, ptr, ptr, ptr, ptr, ptr, i32, i32, ptr, ptr, ptr, ptr, %struct._Unwind_Exception }

; Function Attrs: mustprogress nounwind uwtable
define internal noundef i64 @_ZN10__cxxabiv1L24get_cxa_exception_offsetEv() #0 {
  %1 = alloca i64, align 8
  %2 = alloca i64, align 8
  %3 = alloca i64, align 8
  %4 = alloca i64, align 8
  call void @llvm.lifetime.start.p0(i64 8, ptr %1) #14
  store i64 16, ptr %1, align 8, !tbaa !9
  call void @llvm.lifetime.start.p0(i64 8, ptr %2) #14
  store i64 128, ptr %2, align 8, !tbaa !9
  call void @llvm.lifetime.start.p0(i64 8, ptr %3) #14
  store i64 128, ptr %3, align 8, !tbaa !9
  call void @llvm.lifetime.start.p0(i64 8, ptr %4) #14
  store i64 0, ptr %4, align 8, !tbaa !9
  call void @llvm.lifetime.end.p0(i64 8, ptr %4) #14
  call void @llvm.lifetime.end.p0(i64 8, ptr %3) #14
  call void @llvm.lifetime.end.p0(i64 8, ptr %2) #14
  call void @llvm.lifetime.end.p0(i64 8, ptr %1) #14
  ret i64 0
}

; Function Attrs: mustprogress nounwind uwtable
define dso_local void @__cxa_free_exception(ptr noundef %0) #0 personality ptr @__gxx_personality_v0 {
  %2 = alloca ptr, align 8
  %3 = alloca i64, align 8
  %4 = alloca ptr, align 8
  store ptr %0, ptr %2, align 8, !tbaa !15
  call void @llvm.lifetime.start.p0(i64 8, ptr %3) #14
  %5 = invoke noundef i64 @_ZN10__cxxabiv1L24get_cxa_exception_offsetEv()
          to label %6 unwind label %15

6:                                                ; preds = %1
  store i64 %5, ptr %3, align 8, !tbaa !9
  call void @llvm.lifetime.start.p0(i64 8, ptr %4) #14
  %7 = load ptr, ptr %2, align 8, !tbaa !15
  %8 = invoke noundef ptr @_ZN10__cxxabiv1L32cxa_exception_from_thrown_objectEPv(ptr noundef %7)
          to label %9 unwind label %15

9:                                                ; preds = %6
  %10 = load i64, ptr %3, align 8, !tbaa !9
  %11 = sub i64 0, %10
  %12 = getelementptr inbounds i8, ptr %8, i64 %11
  store ptr %12, ptr %4, align 8, !tbaa !11
  %13 = load ptr, ptr %4, align 8, !tbaa !11
  invoke void @_ZN10__cxxabiv128__aligned_free_with_fallbackEPv(ptr noundef %13)
          to label %14 unwind label %15

14:                                               ; preds = %9
  call void @llvm.lifetime.end.p0(i64 8, ptr %4) #14
  call void @llvm.lifetime.end.p0(i64 8, ptr %3) #14
  ret void

15:                                               ; preds = %9, %6, %1
  %16 = landingpad { ptr, i32 }
          catch ptr null
  %17 = extractvalue { ptr, i32 } %16, 0
  call void @__clang_call_terminate(ptr %17) #15
  unreachable
}

; Function Attrs: inlinehint mustprogress nounwind uwtable
define internal noundef i64 @_ZNSt3__112_GLOBAL__N_119__libcpp_atomic_addB8ne210000ImmEET_PS2_T0_i(ptr noundef %0, i64 noundef %1, i32 noundef %2) #8 {
  %4 = alloca ptr, align 8
  %5 = alloca i64, align 8
  %6 = alloca i32, align 4
  %7 = alloca i64, align 8
  %8 = alloca i64, align 8
  store ptr %0, ptr %4, align 8, !tbaa !45
  store i64 %1, ptr %5, align 8, !tbaa !9
  store i32 %2, ptr %6, align 4, !tbaa !47
  %9 = load ptr, ptr %4, align 8, !tbaa !45
  %10 = load i32, ptr %6, align 4, !tbaa !47
  %11 = load i64, ptr %5, align 8, !tbaa !9
  store i64 %11, ptr %7, align 8, !tbaa !9
  switch i32 %10, label %12 [
    i32 1, label %16
    i32 2, label %16
    i32 3, label %20
    i32 4, label %24
    i32 5, label %28
  ]

12:                                               ; preds = %3
  %13 = load i64, ptr %7, align 8
  %14 = atomicrmw add ptr %9, i64 %13 monotonic, align 8
  %15 = add i64 %14, %13
  store i64 %15, ptr %8, align 8
  br label %32

16:                                               ; preds = %3, %3
  %17 = load i64, ptr %7, align 8
  %18 = atomicrmw add ptr %9, i64 %17 acquire, align 8
  %19 = add i64 %18, %17
  store i64 %19, ptr %8, align 8
  br label %32

20:                                               ; preds = %3
  %21 = load i64, ptr %7, align 8
  %22 = atomicrmw add ptr %9, i64 %21 release, align 8
  %23 = add i64 %22, %21
  store i64 %23, ptr %8, align 8
  br label %32

24:                                               ; preds = %3
  %25 = load i64, ptr %7, align 8
  %26 = atomicrmw add ptr %9, i64 %25 acq_rel, align 8
  %27 = add i64 %26, %25
  store i64 %27, ptr %8, align 8
  br label %32

28:                                               ; preds = %3
  %29 = load i64, ptr %7, align 8
  %30 = atomicrmw add ptr %9, i64 %29 seq_cst, align 8
  %31 = add i64 %30, %29
  store i64 %31, ptr %8, align 8
  br label %32

32:                                               ; preds = %28, %24, %20, %16, %12
  %33 = load i64, ptr %8, align 8, !tbaa !9
  ret i64 %33
}

; Function Attrs: inlinehint mustprogress nounwind uwtable
define internal noundef ptr @_ZN10__cxxabiv1L32cxa_exception_from_thrown_objectEPv(ptr noundef %0) #8 {
  %2 = alloca ptr, align 8
  store ptr %0, ptr %2, align 8, !tbaa !15
  %3 = load ptr, ptr %2, align 8, !tbaa !15
  %4 = getelementptr inbounds %"struct.__cxxabiv1::__cxa_exception", ptr %3, i64 -1
  ret ptr %4
}

; Function Attrs: mustprogress nounwind uwtable
define dso_local void @__cxa_decrement_exception_refcount(ptr noundef %0) #0 personality ptr @__gxx_personality_v0 {
  %2 = alloca ptr, align 8
  %3 = alloca ptr, align 8
  store ptr %0, ptr %2, align 8, !tbaa !15
  %4 = load ptr, ptr %2, align 8, !tbaa !15
  %5 = icmp ne ptr %4, null
  br i1 %5, label %6, label %29

6:                                                ; preds = %1
  call void @llvm.lifetime.start.p0(i64 8, ptr %3) #14
  %7 = load ptr, ptr %2, align 8, !tbaa !15
  %8 = invoke noundef ptr @_ZN10__cxxabiv1L32cxa_exception_from_thrown_objectEPv(ptr noundef %7)
          to label %9 unwind label %30

9:                                                ; preds = %6
  store ptr %8, ptr %3, align 8, !tbaa !13
  %10 = load ptr, ptr %3, align 8, !tbaa !13
  %11 = getelementptr inbounds nuw %"struct.__cxxabiv1::__cxa_exception", ptr %10, i32 0, i32 1
  %12 = invoke noundef i64 @_ZNSt3__112_GLOBAL__N_119__libcpp_atomic_addB8ne210000ImmEET_PS2_T0_i(ptr noundef %11, i64 noundef -1, i32 noundef 5)
          to label %13 unwind label %30

13:                                               ; preds = %9
  %14 = icmp eq i64 %12, 0
  br i1 %14, label %15, label %28

15:                                               ; preds = %13
  %16 = load ptr, ptr %3, align 8, !tbaa !13
  %17 = getelementptr inbounds nuw %"struct.__cxxabiv1::__cxa_exception", ptr %16, i32 0, i32 3
  %18 = load ptr, ptr %17, align 8, !tbaa !37
  %19 = icmp ne ptr null, %18
  br i1 %19, label %20, label %26

20:                                               ; preds = %15
  %21 = load ptr, ptr %3, align 8, !tbaa !13
  %22 = getelementptr inbounds nuw %"struct.__cxxabiv1::__cxa_exception", ptr %21, i32 0, i32 3
  %23 = load ptr, ptr %22, align 8, !tbaa !37
  %24 = load ptr, ptr %2, align 8, !tbaa !15
  invoke void %23(ptr noundef %24)
          to label %25 unwind label %30

25:                                               ; preds = %20
  br label %26

26:                                               ; preds = %25, %15
  %27 = load ptr, ptr %2, align 8, !tbaa !15
  call void @__cxa_free_exception(ptr noundef %27) #14
  br label %28

28:                                               ; preds = %26, %13
  call void @llvm.lifetime.end.p0(i64 8, ptr %3) #14
  br label %29

29:                                               ; preds = %28, %1
  ret void

30:                                               ; preds = %20, %9, %6
  %31 = landingpad { ptr, i32 }
          catch ptr null
  %32 = extractvalue { ptr, i32 } %31, 0
  call void @__clang_call_terminate(ptr %32) #15
  unreachable
}