; Function Attrs: mustprogress nounwind uwtable
define dso_local void @__cxa_decrement_exception_refcount(ptr noundef %0) local_unnamed_addr #2 personality ptr @__gxx_personality_v0 {
  %.not = icmp eq ptr %0, null
  br i1 %.not, label %__cxa_free_exception.exit, label %2

2:                                                ; preds = %1
  %3 = getelementptr inbounds i8, ptr %0, i64 -128
  %4 = getelementptr inbounds i8, ptr %0, i64 -120
  %5 = atomicrmw add ptr %4, i64 -1 seq_cst, align 8
  %6 = icmp eq i64 %5, 1
  br i1 %6, label %7, label %__cxa_free_exception.exit

7:                                                ; preds = %2
  %8 = getelementptr inbounds i8, ptr %0, i64 -104
  %9 = load ptr, ptr %8, align 8, !tbaa !24
  %.not8 = icmp eq ptr %9, null
  br i1 %.not8, label %11, label %10

10:                                               ; preds = %7
  invoke void %9(ptr noundef nonnull %0)
          to label %11 unwind label %15

11:                                               ; preds = %10, %7
  invoke void @_ZN10__cxxabiv128__aligned_free_with_fallbackEPv(ptr noundef nonnull %3)
          to label %__cxa_free_exception.exit unwind label %12

12:                                               ; preds = %11
  %13 = landingpad { ptr, i32 }
          catch ptr null
  %14 = extractvalue { ptr, i32 } %13, 0
  tail call void @__clang_call_terminate(ptr %14) #16
  unreachable

__cxa_free_exception.exit:                        ; preds = %11, %2, %1
  ret void

15:                                               ; preds = %10
  %16 = landingpad { ptr, i32 }
          catch ptr null
  %17 = extractvalue { ptr, i32 } %16, 0
  tail call void @__clang_call_terminate(ptr %17) #16
  unreachable
}